; Function Attrs: mustprogress uwtable
define internal noundef nonnull align 8 dereferenceable(24) ptr @_ZN3gmx12_GLOBAL__N_114UnitAmplitudesclENS_8ArrayRefIKfEES4_NS2_IKiEE(ptr noundef nonnull align 8 dereferenceable(32) %0, ptr nocapture readnone %1, ptr nocapture readnone %2, ptr nocapture readnone %3, ptr nocapture readnone %4, ptr nocapture noundef readonly byval(%"class.gmx::ArrayRef.26") align 8 %5) unnamed_addr #0 align 2 personality ptr @__gxx_personality_v0 {
  %7 = alloca float, align 4
  %8 = getelementptr inbounds i8, ptr %0, i64 8
  %9 = getelementptr inbounds i8, ptr %0, i64 16
  %10 = load ptr, ptr %9, align 8
  %11 = load ptr, ptr %8, align 8
  %12 = ptrtoint ptr %10 to i64
  %13 = ptrtoint ptr %11 to i64
  %14 = sub i64 %12, %13
  %15 = ashr exact i64 %14, 2
  %16 = getelementptr inbounds i8, ptr %5, i64 8
  %.sroa.0.0.copyload.i = load ptr, ptr %5, align 8
  %17 = load ptr, ptr %16, align 8
  %18 = ptrtoint ptr %17 to i64
  %19 = ptrtoint ptr %.sroa.0.0.copyload.i to i64
  %20 = sub i64 %18, %19
  %21 = ashr exact i64 %20, 2
  %.not = icmp eq i64 %15, %21
  br i1 %.not, label %_ZNSt6vectorIfSaIfEE6resizeEmRKf.exit, label %22

22:                                               ; preds = %6
  store float 1.000000e+00, ptr %7, align 4
  %23 = icmp ult i64 %15, %21
  br i1 %23, label %24, label %26

24:                                               ; preds = %22
  %25 = sub nsw i64 %21, %15
  call void @_ZNSt6vectorIfSaIfEE14_M_fill_insertEN9__gnu_cxx17__normal_iteratorIPfS1_EEmRKf(ptr noundef nonnull align 8 dereferenceable(24) %8, ptr %10, i64 noundef %25, ptr noundef nonnull align 4 dereferenceable(4) %7)
  br label %_ZNSt6vectorIfSaIfEE6resizeEmRKf.exit

26:                                               ; preds = %22
  %27 = icmp ugt i64 %15, %21
  br i1 %27, label %28, label %_ZNSt6vectorIfSaIfEE6resizeEmRKf.exit

28:                                               ; preds = %26
  %29 = getelementptr inbounds i8, ptr %11, i64 %20
  %.not.i.i = icmp eq ptr %10, %29
  br i1 %.not.i.i, label %_ZNSt6vectorIfSaIfEE6resizeEmRKf.exit, label %30

30:                                               ; preds = %28
  store ptr %29, ptr %9, align 8
  br label %_ZNSt6vectorIfSaIfEE6resizeEmRKf.exit

_ZNSt6vectorIfSaIfEE6resizeEmRKf.exit:            ; preds = %30, %28, %26, %24, %6
  ret ptr %8
}